; Function Attrs: mustprogress nounwind uwtable
define dso_local void @_ZNK4node9inspector5Agent8GetWsUrlB5cxx11Ev(ptr noalias sret(%"class.std::__cxx11::basic_string") align 8 %agg.result, ptr nocapture noundef nonnull readonly align 8 dereferenceable(186) %this) local_unnamed_addr #3 align 2 {
entry:
  %ref.tmp = alloca %"class.std::allocator", align 1
  %io_ = getelementptr inbounds i8, ptr %this, i64 24
  %0 = load ptr, ptr %io_, align 8
  %cmp.i.not.i = icmp eq ptr %0, null
  br i1 %cmp.i.not.i, label %if.then, label %if.end

if.then:                                          ; preds = %entry
  call void @_ZNSaIcEC1Ev(ptr noundef nonnull align 1 dereferenceable(1) %ref.tmp) #23
  %call.i = call noundef ptr @_ZNSt7__cxx1112basic_stringIcSt11char_traitsIcESaIcEE13_M_local_dataEv(ptr noundef nonnull align 8 dereferenceable(32) %agg.result) #23
  call void @_ZNSt7__cxx1112basic_stringIcSt11char_traitsIcESaIcEE12_Alloc_hiderC1EPcRKS3_(ptr noundef nonnull align 8 dereferenceable(8) %agg.result, ptr noundef %call.i, ptr noundef nonnull align 1 dereferenceable(1) %ref.tmp) #23
  call void @_ZNSt7__cxx1112basic_stringIcSt11char_traitsIcESaIcEE12_M_constructIPKcEEvT_S8_St20forward_iterator_tag(ptr noundef nonnull align 8 dereferenceable(32) %agg.result, ptr noundef nonnull @.str.55, ptr noundef nonnull @.str.55)
  call void @_ZNSaIcED1Ev(ptr noundef nonnull align 1 dereferenceable(1) %ref.tmp) #23
  br label %return

if.end:                                           ; preds = %entry
  tail call void @_ZNK4node9inspector11InspectorIo8GetWsUrlB5cxx11Ev(ptr sret(%"class.std::__cxx11::basic_string") align 8 %agg.result, ptr noundef nonnull align 8 dereferenceable(216) %0) #23
  br label %return

return:                                           ; preds = %if.end, %if.then
  ret void
}